; Function Attrs: nounwind uwtable
define ptr @Abc_NtkCreatePropertyMonitorTest(ptr noundef %0) local_unnamed_addr #0 {
Vec_IntFree.exit48:
  %1 = tail call noalias dereferenceable_or_null(16) ptr @malloc(i64 noundef 16) #30
  %2 = getelementptr inbounds nuw i8, ptr %1, i64 4
  store i32 100, ptr %1, align 8
  %3 = tail call noalias dereferenceable_or_null(400) ptr @malloc(i64 noundef 400) #30
  %4 = getelementptr inbounds nuw i8, ptr %1, i64 8
  store ptr %3, ptr %4, align 8
  %5 = tail call noalias dereferenceable_or_null(16) ptr @malloc(i64 noundef 16) #30
  %6 = getelementptr inbounds nuw i8, ptr %5, i64 4
  store i32 100, ptr %5, align 8
  %7 = tail call noalias dereferenceable_or_null(400) ptr @malloc(i64 noundef 400) #30
  %8 = getelementptr inbounds nuw i8, ptr %5, i64 8
  store ptr %7, ptr %8, align 8
  store i32 90, ptr %3, align 4
  %9 = getelementptr inbounds nuw i8, ptr %3, i64 4
  store i32 80, ptr %9, align 4
  store i32 3, ptr %2, align 4
  %10 = getelementptr inbounds nuw i8, ptr %3, i64 8
  store i32 100, ptr %10, align 4
  store i32 1, ptr %7, align 4
  %11 = getelementptr inbounds nuw i8, ptr %7, i64 4
  store i32 0, ptr %11, align 4
  store i32 3, ptr %6, align 4
  %12 = getelementptr inbounds nuw i8, ptr %7, i64 8
  store i32 1, ptr %12, align 4
  %13 = tail call ptr @Abc_NtkDeriveWithOnePo(ptr noundef %0, ptr noundef nonnull readonly %1, ptr noundef nonnull readonly %5)
  %14 = tail call ptr @Abc_NtkStrash(ptr noundef %13, i32 noundef 0, i32 noundef 1, i32 noundef 0) #28
  tail call void @Abc_NtkDelete(ptr noundef %13) #28
  %15 = tail call ptr @Abc_NtkDarLatchSweep(ptr noundef %14, i32 noundef 1, i32 noundef 1, i32 noundef 1, i32 noundef 0, i32 noundef 1, i32 noundef 512, i32 noundef 0, i32 noundef 0) #28
  tail call void @Abc_NtkDelete(ptr noundef %14) #28
  tail call void @free(ptr noundef nonnull %3) #28
  tail call void @free(ptr noundef nonnull %1) #28
  tail call void @free(ptr noundef nonnull %7) #28
  tail call void @free(ptr noundef nonnull %5) #28
  ret ptr %15
}